target datalayout = "e-m:e-p270:32:32-p271:32:32-p272:64:64-i64:64-i128:128-f80:128-n8:16:32:64-S128"
target triple = "x86_64-pc-linux-gnu"

%struct.PageHeaderData = type { %struct.PageXLogRecPtr, i16, i16, i16, i16, i16, i16, i32, [0 x %struct.ItemIdData] }
%struct.PageXLogRecPtr = type { i32, i32 }
%struct.ItemIdData = type { i32 }
%struct.GinPageOpaqueData = type { i32, i16, i16 }

; Function Attrs: inlinehint nounwind uwtable
define internal void @PageValidateSpecialPointer(ptr noundef %0) #2 {
  %2 = alloca ptr, align 8
  store ptr %0, ptr %2, align 8
  ret void
}

; Function Attrs: nounwind uwtable
define dso_local void @GinInitPage(ptr noundef %0, i32 noundef %1, i64 noundef %2) #0 {
  %4 = alloca ptr, align 8
  %5 = alloca i32, align 4
  %6 = alloca i64, align 8
  %7 = alloca ptr, align 8
  store ptr %0, ptr %4, align 8
  store i32 %1, ptr %5, align 4
  store i64 %2, ptr %6, align 8
  call void @llvm.lifetime.start.p0(i64 8, ptr %7) #7
  %8 = load ptr, ptr %4, align 8
  %9 = load i64, ptr %6, align 8
  call void @PageInit(ptr noundef %8, i64 noundef %9, i64 noundef 8)
  %10 = load ptr, ptr %4, align 8
  call void @PageValidateSpecialPointer(ptr noundef %10)
  %11 = load ptr, ptr %4, align 8
  %12 = load ptr, ptr %4, align 8
  %13 = getelementptr inbounds nuw %struct.PageHeaderData, ptr %12, i32 0, i32 5
  %14 = load i16, ptr %13, align 4
  %15 = zext i16 %14 to i32
  %16 = sext i32 %15 to i64
  %17 = getelementptr inbounds i8, ptr %11, i64 %16
  store ptr %17, ptr %7, align 8
  %18 = load i32, ptr %5, align 4
  %19 = trunc i32 %18 to i16
  %20 = load ptr, ptr %7, align 8
  %21 = getelementptr inbounds nuw %struct.GinPageOpaqueData, ptr %20, i32 0, i32 2
  store i16 %19, ptr %21, align 2
  %22 = load ptr, ptr %7, align 8
  %23 = getelementptr inbounds nuw %struct.GinPageOpaqueData, ptr %22, i32 0, i32 0
  store i32 -1, ptr %23, align 4
  call void @llvm.lifetime.end.p0(i64 8, ptr %7) #7
  ret void
}