; Function Attrs: nounwind uwtable
define dso_local void @GinInitPage(ptr noundef %0, i32 noundef %1, i64 noundef %2) local_unnamed_addr #0 {
  tail call void @PageInit(ptr noundef %0, i64 noundef %2, i64 noundef 8) #7
  %4 = getelementptr inbounds nuw i8, ptr %0, i64 16
  %5 = load i16, ptr %4, align 4
  %6 = zext i16 %5 to i64
  %7 = getelementptr inbounds nuw i8, ptr %0, i64 %6
  %8 = trunc i32 %1 to i16
  %9 = getelementptr inbounds nuw i8, ptr %7, i64 6
  store i16 %8, ptr %9, align 2
  store i32 -1, ptr %7, align 4
  ret void
}